; Function Attrs: mustprogress nofree norecurse nosync nounwind memory(readwrite, inaccessiblemem: none) uwtable
define noundef double @_ZNK8QuantLib15KnuthUniformRng14ranf_arr_cycleEv(ptr nocapture noundef nonnull align 8 dereferenceable(64) %this) local_unnamed_addr #2 align 2 {
entry:
  %ran_u.i = getelementptr inbounds nuw i8, ptr %this, i64 40
  %0 = load ptr, ptr %ran_u.i, align 8, !tbaa !3
  %1 = load ptr, ptr %this, align 8, !tbaa !3
  br label %for.body.i

for.cond4.preheader.i:                            ; preds = %for.body.i
  %invariant.gep.i = getelementptr i8, ptr %1, i64 -800
  %invariant.gep47.i = getelementptr i8, ptr %1, i64 -296
  br label %for.body6.i

for.body.i:                                       ; preds = %for.body.i, %entry
  %indvars.iv.i = phi i64 [ 0, %entry ], [ %indvars.iv.next.i, %for.body.i ]
  %add.ptr.i.i = getelementptr inbounds nuw double, ptr %0, i64 %indvars.iv.i
  %2 = load double, ptr %add.ptr.i.i, align 8, !tbaa !18
  %add.ptr.i26.i = getelementptr inbounds nuw double, ptr %1, i64 %indvars.iv.i
  store double %2, ptr %add.ptr.i26.i, align 8, !tbaa !18
  %indvars.iv.next.i = add nuw nsw i64 %indvars.iv.i, 1
  %exitcond.not.i = icmp eq i64 %indvars.iv.next.i, 100
  br i1 %exitcond.not.i, label %for.cond4.preheader.i, label %for.body.i, !llvm.loop !28

for.body6.i:                                      ; preds = %for.body6.i, %for.cond4.preheader.i
  %indvars.iv63.i = phi i64 [ 100, %for.cond4.preheader.i ], [ %indvars.iv.next64.i, %for.body6.i ]
  %gep.i = getelementptr double, ptr %invariant.gep.i, i64 %indvars.iv63.i
  %3 = load double, ptr %gep.i, align 8, !tbaa !18
  %gep48.i = getelementptr double, ptr %invariant.gep47.i, i64 %indvars.iv63.i
  %4 = load double, ptr %gep48.i, align 8, !tbaa !18
  %add.i.i = fadd double %3, %4
  %conv.i.i = fptosi double %add.i.i to i32
  %conv3.i.i = sitofp i32 %conv.i.i to double
  %sub.i.i = fsub double %add.i.i, %conv3.i.i
  %add.ptr.i29.i = getelementptr inbounds nuw double, ptr %1, i64 %indvars.iv63.i
  store double %sub.i.i, ptr %add.ptr.i29.i, align 8, !tbaa !18
  %indvars.iv.next64.i = add nuw nsw i64 %indvars.iv63.i, 1
  %exitcond66.not.i = icmp eq i64 %indvars.iv.next64.i, 1009
  br i1 %exitcond66.not.i, label %for.body20.i, label %for.body6.i, !llvm.loop !29

for.body37.lr.ph.i:                               ; preds = %for.body20.i
  %invariant.gep60.i = getelementptr i8, ptr %0, i64 -296
  br label %for.body37.i

for.body20.i:                                     ; preds = %for.body6.i, %for.body20.i
  %indvars.iv75.in.i = phi i64 [ %indvars.iv75.i, %for.body20.i ], [ 1009, %for.body6.i ]
  %indvars.iv69.i = phi i64 [ %indvars.iv.next70.i, %for.body20.i ], [ 0, %for.body6.i ]
  %indvars.iv75.i = add nuw nsw i64 %indvars.iv75.in.i, 1
  %gep50.i = getelementptr double, ptr %invariant.gep.i, i64 %indvars.iv75.in.i
  %5 = load double, ptr %gep50.i, align 8, !tbaa !18
  %gep52.i = getelementptr double, ptr %invariant.gep47.i, i64 %indvars.iv75.in.i
  %6 = load double, ptr %gep52.i, align 8, !tbaa !18
  %add.i32.i = fadd double %5, %6
  %conv.i33.i = fptosi double %add.i32.i to i32
  %conv3.i34.i = sitofp i32 %conv.i33.i to double
  %sub.i35.i = fsub double %add.i32.i, %conv3.i34.i
  %add.ptr.i36.i = getelementptr inbounds nuw double, ptr %0, i64 %indvars.iv69.i
  store double %sub.i35.i, ptr %add.ptr.i36.i, align 8, !tbaa !18
  %indvars.iv.next70.i = add nuw nsw i64 %indvars.iv69.i, 1
  %exitcond74.not.i = icmp eq i64 %indvars.iv.next70.i, 37
  br i1 %exitcond74.not.i, label %for.body37.lr.ph.i, label %for.body20.i, !llvm.loop !30

for.body37.i:                                     ; preds = %for.body37.i, %for.body37.lr.ph.i
  %indvars.iv79.i = phi i64 [ 37, %for.body37.lr.ph.i ], [ %indvars.iv.next80.i, %for.body37.i ]
  %indvars.iv77.i = phi i64 [ 1046, %for.body37.lr.ph.i ], [ %indvars.iv.next78.i, %for.body37.i ]
  %gep59.i = getelementptr double, ptr %invariant.gep.i, i64 %indvars.iv77.i
  %7 = load double, ptr %gep59.i, align 8, !tbaa !18
  %gep61.i = getelementptr double, ptr %invariant.gep60.i, i64 %indvars.iv79.i
  %8 = load double, ptr %gep61.i, align 8, !tbaa !18
  %add.i39.i = fadd double %7, %8
  %conv.i40.i = fptosi double %add.i39.i to i32
  %conv3.i41.i = sitofp i32 %conv.i40.i to double
  %sub.i42.i = fsub double %add.i39.i, %conv3.i41.i
  %add.ptr.i43.i = getelementptr inbounds nuw double, ptr %0, i64 %indvars.iv79.i
  store double %sub.i42.i, ptr %add.ptr.i43.i, align 8, !tbaa !18
  %indvars.iv.next80.i = add nuw nsw i64 %indvars.iv79.i, 1
  %indvars.iv.next78.i = add nuw nsw i64 %indvars.iv77.i, 1
  %exitcond84.not.i = icmp eq i64 %indvars.iv.next80.i, 100
  br i1 %exitcond84.not.i, label %_ZNK8QuantLib15KnuthUniformRng10ranf_arrayERSt6vectorIdSaIdEEi.exit, label %for.body37.i, !llvm.loop !31

_ZNK8QuantLib15KnuthUniformRng10ranf_arrayERSt6vectorIdSaIdEEi.exit: ; preds = %for.body37.i
  %ranf_arr_ptr = getelementptr inbounds nuw i8, ptr %this, i64 24
  store i64 1, ptr %ranf_arr_ptr, align 8, !tbaa !16
  %ranf_arr_sentinel = getelementptr inbounds nuw i8, ptr %this, i64 32
  store i64 100, ptr %ranf_arr_sentinel, align 8, !tbaa !10
  %9 = load double, ptr %1, align 8, !tbaa !18
  ret double %9
}